target datalayout = "e-m:e-p270:32:32-p271:32:32-p272:64:64-i64:64-i128:128-f80:128-n8:16:32:64-S128"
target triple = "x86_64-pc-linux-gnu"

%struct.cli_events = type { ptr, %struct.cli_event, i64, i32, i32 }
%struct.cli_event = type { ptr, %union.ev_val, i32, i16 }
%union.ev_val = type { ptr }

@.str.17 = private unnamed_addr constant [47 x i8] c"diffall: incompatible event maximums %u vs %u\0A\00", align 1

; Function Attrs: nounwind uwtable
define i32 @cli_event_diff_all(ptr noundef %0, ptr noundef %1, ptr noundef %2) #0 {
  %4 = alloca i32, align 4
  %5 = alloca ptr, align 8
  %6 = alloca ptr, align 8
  %7 = alloca ptr, align 8
  %8 = alloca i32, align 4
  %9 = alloca i32, align 4
  %10 = alloca i32, align 4
  %11 = alloca ptr, align 8
  store ptr %0, ptr %5, align 8, !tbaa !7
  store ptr %1, ptr %6, align 8, !tbaa !7
  store ptr %2, ptr %7, align 8, !tbaa !32
  call void @llvm.lifetime.start.p0(i64 4, ptr %8) #8
  call void @llvm.lifetime.start.p0(i64 4, ptr %9) #8
  store i32 0, ptr %9, align 4, !tbaa !3
  %12 = load ptr, ptr %5, align 8, !tbaa !7
  %13 = getelementptr inbounds nuw %struct.cli_events, ptr %12, i32 0, i32 3
  %14 = load i32, ptr %13, align 8, !tbaa !10
  %15 = load ptr, ptr %6, align 8, !tbaa !7
  %16 = getelementptr inbounds nuw %struct.cli_events, ptr %15, i32 0, i32 3
  %17 = load i32, ptr %16, align 8, !tbaa !10
  %18 = icmp ne i32 %14, %17
  br i1 %18, label %19, label %26

19:                                               ; preds = %3
  %20 = load ptr, ptr %5, align 8, !tbaa !7
  %21 = getelementptr inbounds nuw %struct.cli_events, ptr %20, i32 0, i32 3
  %22 = load i32, ptr %21, align 8, !tbaa !10
  %23 = load ptr, ptr %6, align 8, !tbaa !7
  %24 = getelementptr inbounds nuw %struct.cli_events, ptr %23, i32 0, i32 3
  %25 = load i32, ptr %24, align 8, !tbaa !10
  call void (ptr, ...) @cli_dbgmsg(ptr noundef @.str.17, i32 noundef %22, i32 noundef %25)
  store i32 1, ptr %4, align 4
  store i32 1, ptr %10, align 4
  br label %70

26:                                               ; preds = %3
  store i32 0, ptr %8, align 4, !tbaa !3
  br label %27

27:                                               ; preds = %63, %26
  %28 = load i32, ptr %8, align 4, !tbaa !3
  %29 = load ptr, ptr %5, align 8, !tbaa !7
  %30 = getelementptr inbounds nuw %struct.cli_events, ptr %29, i32 0, i32 3
  %31 = load i32, ptr %30, align 8, !tbaa !10
  %32 = icmp ult i32 %28, %31
  br i1 %32, label %33, label %66

33:                                               ; preds = %27
  call void @llvm.lifetime.start.p0(i64 8, ptr %11) #8
  %34 = load ptr, ptr %5, align 8, !tbaa !7
  %35 = getelementptr inbounds nuw %struct.cli_events, ptr %34, i32 0, i32 0
  %36 = load ptr, ptr %35, align 8, !tbaa !16
  %37 = load i32, ptr %8, align 4, !tbaa !3
  %38 = zext i32 %37 to i64
  %39 = getelementptr inbounds nuw %struct.cli_event, ptr %36, i64 %38
  store ptr %39, ptr %11, align 8, !tbaa !21
  %40 = load ptr, ptr %7, align 8, !tbaa !32
  %41 = icmp ne ptr %40, null
  br i1 %41, label %42, label %53

42:                                               ; preds = %33
  %43 = load ptr, ptr %7, align 8, !tbaa !32
  %44 = load i32, ptr %8, align 4, !tbaa !3
  %45 = load ptr, ptr %11, align 8, !tbaa !21
  %46 = getelementptr inbounds nuw %struct.cli_event, ptr %45, i32 0, i32 3
  %47 = load i16, ptr %46, align 4
  %48 = and i16 %47, 255
  %49 = zext i16 %48 to i32
  %50 = call i32 %43(i32 noundef %44, i32 noundef %49)
  %51 = icmp ne i32 %50, 0
  br i1 %51, label %52, label %53

52:                                               ; preds = %42
  store i32 4, ptr %10, align 4
  br label %60

53:                                               ; preds = %42, %33
  %54 = load ptr, ptr %5, align 8, !tbaa !7
  %55 = load ptr, ptr %6, align 8, !tbaa !7
  %56 = load i32, ptr %8, align 4, !tbaa !3
  %57 = call i32 @cli_event_diff(ptr noundef %54, ptr noundef %55, i32 noundef %56)
  %58 = load i32, ptr %9, align 4, !tbaa !3
  %59 = add i32 %58, %57
  store i32 %59, ptr %9, align 4, !tbaa !3
  store i32 0, ptr %10, align 4
  br label %60

60:                                               ; preds = %53, %52
  call void @llvm.lifetime.end.p0(i64 8, ptr %11) #8
  %61 = load i32, ptr %10, align 4
  switch i32 %61, label %72 [
    i32 0, label %62
    i32 4, label %63
  ]

62:                                               ; preds = %60
  br label %63

63:                                               ; preds = %62, %60
  %64 = load i32, ptr %8, align 4, !tbaa !3
  %65 = add i32 %64, 1
  store i32 %65, ptr %8, align 4, !tbaa !3
  br label %27

66:                                               ; preds = %27
  %67 = load i32, ptr %9, align 4, !tbaa !3
  %68 = icmp ne i32 %67, 0
  %69 = select i1 %68, i32 1, i32 0
  store i32 %69, ptr %4, align 4
  store i32 1, ptr %10, align 4
  br label %70

70:                                               ; preds = %66, %19
  call void @llvm.lifetime.end.p0(i64 4, ptr %9) #8
  call void @llvm.lifetime.end.p0(i64 4, ptr %8) #8
  %71 = load i32, ptr %4, align 4
  ret i32 %71

72:                                               ; preds = %60
  unreachable
}