; Function Attrs: nounwind uwtable
define range(i32 0, 2) i32 @cli_event_diff_all(ptr noundef %0, ptr noundef %1, ptr noundef readonly %2) local_unnamed_addr #5 {
  %4 = getelementptr inbounds nuw i8, ptr %0, i64 40
  %5 = load i32, ptr %4, align 8, !tbaa !3
  %6 = getelementptr inbounds nuw i8, ptr %1, i64 40
  %7 = load i32, ptr %6, align 8, !tbaa !3
  %.not = icmp eq i32 %5, %7
  br i1 %.not, label %.preheader, label %13

.preheader:                                       ; preds = %3
  %.not29 = icmp eq i32 %5, 0
  br i1 %.not29, label %._crit_edge, label %.lr.ph

.lr.ph:                                           ; preds = %.preheader
  %.not24 = icmp eq ptr %2, null
  br i1 %.not24, label %.lr.ph.split.us, label %.lr.ph.split

.lr.ph.split.us:                                  ; preds = %.lr.ph, %.lr.ph.split.us
  %.01828.us = phi i32 [ %9, %.lr.ph.split.us ], [ 0, %.lr.ph ]
  %.01926.us = phi i32 [ %10, %.lr.ph.split.us ], [ 0, %.lr.ph ]
  %8 = tail call i32 @cli_event_diff(ptr noundef nonnull %0, ptr noundef %1, i32 noundef %.01926.us)
  %9 = add i32 %8, %.01828.us
  %10 = add nuw i32 %.01926.us, 1
  %11 = load i32, ptr %4, align 8, !tbaa !3
  %12 = icmp ult i32 %10, %11
  br i1 %12, label %.lr.ph.split.us, label %._crit_edge

13:                                               ; preds = %3
  tail call void (ptr, ...) @cli_dbgmsg(ptr noundef nonnull @.str.17, i32 noundef %5, i32 noundef %7) #14
  br label %29

.lr.ph.split:                                     ; preds = %.lr.ph, %24
  %indvars.iv = phi i64 [ %indvars.iv.next, %24 ], [ 0, %.lr.ph ]
  %.01828 = phi i32 [ %.1, %24 ], [ 0, %.lr.ph ]
  %14 = load ptr, ptr %0, align 8, !tbaa !13
  %15 = getelementptr inbounds nuw %struct.cli_event, ptr %14, i64 %indvars.iv, i32 3
  %16 = load i16, ptr %15, align 4
  %17 = and i16 %16, 255
  %18 = zext nneg i16 %17 to i32
  %19 = trunc nuw i64 %indvars.iv to i32
  %20 = tail call i32 %2(i32 noundef %19, i32 noundef %18) #14
  %.not25 = icmp eq i32 %20, 0
  br i1 %.not25, label %21, label %24

21:                                               ; preds = %.lr.ph.split
  %22 = tail call i32 @cli_event_diff(ptr noundef nonnull %0, ptr noundef %1, i32 noundef %19)
  %23 = add i32 %22, %.01828
  br label %24

24:                                               ; preds = %.lr.ph.split, %21
  %.1 = phi i32 [ %23, %21 ], [ %.01828, %.lr.ph.split ]
  %indvars.iv.next = add nuw nsw i64 %indvars.iv, 1
  %25 = load i32, ptr %4, align 8, !tbaa !3
  %26 = zext i32 %25 to i64
  %27 = icmp samesign ult i64 %indvars.iv.next, %26
  br i1 %27, label %.lr.ph.split, label %._crit_edge

._crit_edge:                                      ; preds = %24, %.lr.ph.split.us, %.preheader
  %.018.lcssa = phi i32 [ 0, %.preheader ], [ %9, %.lr.ph.split.us ], [ %.1, %24 ]
  %.not23 = icmp ne i32 %.018.lcssa, 0
  %28 = zext i1 %.not23 to i32
  br label %29

29:                                               ; preds = %._crit_edge, %13
  %.0 = phi i32 [ 1, %13 ], [ %28, %._crit_edge ]
  ret i32 %.0
}